; Function Attrs: nounwind uwtable
define dso_local noundef ptr @makeJsonFormat(i32 noundef %0, i32 noundef %1, i32 noundef %2) local_unnamed_addr #0 {
  %4 = tail call noundef ptr @palloc0(i64 noundef 16) #7
  store i32 42, ptr %4, align 4
  %5 = getelementptr inbounds nuw i8, ptr %4, i64 4
  store i32 %0, ptr %5, align 4
  %6 = getelementptr inbounds nuw i8, ptr %4, i64 8
  store i32 %1, ptr %6, align 4
  %7 = getelementptr inbounds nuw i8, ptr %4, i64 12
  store i32 %2, ptr %7, align 4
  ret ptr %4
}